target datalayout = "e-m:e-p270:32:32-p271:32:32-p272:64:64-i64:64-i128:128-f80:128-n8:16:32:64-S128"
target triple = "x86_64-pc-linux-gnu"

%struct.strbuf = type { i64, i64, ptr }
%struct.config_source = type { ptr, %union.anon, i32, ptr, ptr, i32, i32, i32, i64, %struct.strbuf, %struct.strbuf, i8, ptr, ptr, ptr }
%union.anon = type { %struct.config_buf }
%struct.config_buf = type { ptr, i64, i64 }
%struct.config_store_data = type { i64, ptr, i32, ptr, ptr, i32, ptr, i32, i32, ptr, i32, i32, i8 }
%struct.anon = type { i64, i64, i32, i32 }

@.str.8 = private unnamed_addr constant [1 x i8] zeroinitializer, align 1
@git_gettext_enabled = external global i32, align 4
@.str.242 = private unnamed_addr constant [27 x i8] c"size_t overflow: %lu * %lu\00", align 1
@.str.243 = private unnamed_addr constant [26 x i8] c"invalid section name '%s'\00", align 1

; Function Attrs: inlinehint nounwind uwtable
define internal i32 @const_error() #6 {
  ret i32 -1
}

; Function Attrs: inlinehint nounwind uwtable
define internal ptr @_(ptr noundef %0) #6 {
  %2 = alloca ptr, align 8
  %3 = alloca ptr, align 8
  store ptr %0, ptr %3, align 8, !tbaa !4
  %4 = load ptr, ptr %3, align 8, !tbaa !4
  %5 = load i8, ptr %4, align 1, !tbaa !9
  %6 = icmp ne i8 %5, 0
  br i1 %6, label %8, label %7

7:                                                ; preds = %1
  store ptr @.str.8, ptr %2, align 8
  br label %16

8:                                                ; preds = %1
  %9 = load i32, ptr @git_gettext_enabled, align 4, !tbaa !13
  %10 = icmp ne i32 %9, 0
  br i1 %10, label %13, label %11

11:                                               ; preds = %8
  %12 = load ptr, ptr %3, align 8, !tbaa !4
  store ptr %12, ptr %2, align 8
  br label %16

13:                                               ; preds = %8
  %14 = load ptr, ptr %3, align 8, !tbaa !4
  %15 = call ptr @dcgettext(ptr noundef null, ptr noundef %14, i32 noundef 5) #13
  store ptr %15, ptr %2, align 8
  br label %16

16:                                               ; preds = %13, %11, %7
  %17 = load ptr, ptr %2, align 8
  ret ptr %17
}

; Function Attrs: inlinehint nounwind uwtable
define internal i64 @st_mult(i64 noundef %0, i64 noundef %1) #6 {
  %3 = alloca i64, align 8
  %4 = alloca i64, align 8
  store i64 %0, ptr %3, align 8, !tbaa !19
  store i64 %1, ptr %4, align 8, !tbaa !19
  %5 = load i64, ptr %3, align 8, !tbaa !19
  %6 = icmp ne i64 %5, 0
  br i1 %6, label %7, label %15

7:                                                ; preds = %2
  %8 = load i64, ptr %4, align 8, !tbaa !19
  %9 = load i64, ptr %3, align 8, !tbaa !19
  %10 = udiv i64 -1, %9
  %11 = icmp ugt i64 %8, %10
  br i1 %11, label %12, label %15

12:                                               ; preds = %7
  %13 = load i64, ptr %3, align 8, !tbaa !19
  %14 = load i64, ptr %4, align 8, !tbaa !19
  call void (ptr, ...) @die(ptr noundef @.str.242, i64 noundef %13, i64 noundef %14) #15
  unreachable

15:                                               ; preds = %7, %2
  %16 = load i64, ptr %3, align 8, !tbaa !19
  %17 = load i64, ptr %4, align 8, !tbaa !19
  %18 = mul i64 %16, %17
  ret i64 %18
}

; Function Attrs: nounwind uwtable
define internal i32 @store_aux_event(i32 noundef %0, i64 noundef %1, i64 noundef %2, ptr noundef %3, ptr noundef %4) #0 {
  %6 = alloca i32, align 4
  %7 = alloca i32, align 4
  %8 = alloca i64, align 8
  %9 = alloca i64, align 8
  %10 = alloca ptr, align 8
  %11 = alloca ptr, align 8
  %12 = alloca ptr, align 8
  %13 = alloca ptr, align 8
  %14 = alloca i32, align 4
  store i32 %0, ptr %7, align 4, !tbaa !13
  store i64 %1, ptr %8, align 8, !tbaa !19
  store i64 %2, ptr %9, align 8, !tbaa !19
  store ptr %3, ptr %10, align 8, !tbaa !61
  store ptr %4, ptr %11, align 8, !tbaa !30
  call void @llvm.lifetime.start.p0(i64 8, ptr %12) #13
  %15 = load ptr, ptr %11, align 8, !tbaa !30
  store ptr %15, ptr %12, align 8, !tbaa !177
  br label %16

16:                                               ; preds = %5
  %17 = load ptr, ptr %12, align 8, !tbaa !177
  %18 = getelementptr inbounds nuw %struct.config_store_data, ptr %17, i32 0, i32 7
  %19 = load i32, ptr %18, align 8, !tbaa !171
  %20 = add i32 %19, 1
  %21 = load ptr, ptr %12, align 8, !tbaa !177
  %22 = getelementptr inbounds nuw %struct.config_store_data, ptr %21, i32 0, i32 8
  %23 = load i32, ptr %22, align 4, !tbaa !158
  %24 = icmp ugt i32 %20, %23
  br i1 %24, label %25, label %65

25:                                               ; preds = %16
  %26 = load ptr, ptr %12, align 8, !tbaa !177
  %27 = getelementptr inbounds nuw %struct.config_store_data, ptr %26, i32 0, i32 8
  %28 = load i32, ptr %27, align 4, !tbaa !158
  %29 = add i32 %28, 16
  %30 = mul i32 %29, 3
  %31 = udiv i32 %30, 2
  %32 = load ptr, ptr %12, align 8, !tbaa !177
  %33 = getelementptr inbounds nuw %struct.config_store_data, ptr %32, i32 0, i32 7
  %34 = load i32, ptr %33, align 8, !tbaa !171
  %35 = add i32 %34, 1
  %36 = icmp ult i32 %31, %35
  br i1 %36, label %37, label %44

37:                                               ; preds = %25
  %38 = load ptr, ptr %12, align 8, !tbaa !177
  %39 = getelementptr inbounds nuw %struct.config_store_data, ptr %38, i32 0, i32 7
  %40 = load i32, ptr %39, align 8, !tbaa !171
  %41 = add i32 %40, 1
  %42 = load ptr, ptr %12, align 8, !tbaa !177
  %43 = getelementptr inbounds nuw %struct.config_store_data, ptr %42, i32 0, i32 8
  store i32 %41, ptr %43, align 4, !tbaa !158
  br label %53

44:                                               ; preds = %25
  %45 = load ptr, ptr %12, align 8, !tbaa !177
  %46 = getelementptr inbounds nuw %struct.config_store_data, ptr %45, i32 0, i32 8
  %47 = load i32, ptr %46, align 4, !tbaa !158
  %48 = add i32 %47, 16
  %49 = mul i32 %48, 3
  %50 = udiv i32 %49, 2
  %51 = load ptr, ptr %12, align 8, !tbaa !177
  %52 = getelementptr inbounds nuw %struct.config_store_data, ptr %51, i32 0, i32 8
  store i32 %50, ptr %52, align 4, !tbaa !158
  br label %53

53:                                               ; preds = %44, %37
  %54 = load ptr, ptr %12, align 8, !tbaa !177
  %55 = getelementptr inbounds nuw %struct.config_store_data, ptr %54, i32 0, i32 6
  %56 = load ptr, ptr %55, align 8, !tbaa !159
  %57 = load ptr, ptr %12, align 8, !tbaa !177
  %58 = getelementptr inbounds nuw %struct.config_store_data, ptr %57, i32 0, i32 8
  %59 = load i32, ptr %58, align 4, !tbaa !158
  %60 = zext i32 %59 to i64
  %61 = call i64 @st_mult(i64 noundef 24, i64 noundef %60)
  %62 = call ptr @xrealloc(ptr noundef %56, i64 noundef %61)
  %63 = load ptr, ptr %12, align 8, !tbaa !177
  %64 = getelementptr inbounds nuw %struct.config_store_data, ptr %63, i32 0, i32 6
  store ptr %62, ptr %64, align 8, !tbaa !159
  br label %65

65:                                               ; preds = %53, %16
  br label %66

66:                                               ; preds = %65
  br label %67

67:                                               ; preds = %66
  %68 = load i64, ptr %8, align 8, !tbaa !19
  %69 = load ptr, ptr %12, align 8, !tbaa !177
  %70 = getelementptr inbounds nuw %struct.config_store_data, ptr %69, i32 0, i32 6
  %71 = load ptr, ptr %70, align 8, !tbaa !159
  %72 = load ptr, ptr %12, align 8, !tbaa !177
  %73 = getelementptr inbounds nuw %struct.config_store_data, ptr %72, i32 0, i32 7
  %74 = load i32, ptr %73, align 8, !tbaa !171
  %75 = zext i32 %74 to i64
  %76 = getelementptr inbounds nuw %struct.anon, ptr %71, i64 %75
  %77 = getelementptr inbounds nuw %struct.anon, ptr %76, i32 0, i32 0
  store i64 %68, ptr %77, align 8, !tbaa !172
  %78 = load i64, ptr %9, align 8, !tbaa !19
  %79 = load ptr, ptr %12, align 8, !tbaa !177
  %80 = getelementptr inbounds nuw %struct.config_store_data, ptr %79, i32 0, i32 6
  %81 = load ptr, ptr %80, align 8, !tbaa !159
  %82 = load ptr, ptr %12, align 8, !tbaa !177
  %83 = getelementptr inbounds nuw %struct.config_store_data, ptr %82, i32 0, i32 7
  %84 = load i32, ptr %83, align 8, !tbaa !171
  %85 = zext i32 %84 to i64
  %86 = getelementptr inbounds nuw %struct.anon, ptr %81, i64 %85
  %87 = getelementptr inbounds nuw %struct.anon, ptr %86, i32 0, i32 1
  store i64 %78, ptr %87, align 8, !tbaa !160
  %88 = load i32, ptr %7, align 4, !tbaa !13
  %89 = load ptr, ptr %12, align 8, !tbaa !177
  %90 = getelementptr inbounds nuw %struct.config_store_data, ptr %89, i32 0, i32 6
  %91 = load ptr, ptr %90, align 8, !tbaa !159
  %92 = load ptr, ptr %12, align 8, !tbaa !177
  %93 = getelementptr inbounds nuw %struct.config_store_data, ptr %92, i32 0, i32 7
  %94 = load i32, ptr %93, align 8, !tbaa !171
  %95 = zext i32 %94 to i64
  %96 = getelementptr inbounds nuw %struct.anon, ptr %91, i64 %95
  %97 = getelementptr inbounds nuw %struct.anon, ptr %96, i32 0, i32 2
  store i32 %88, ptr %97, align 8, !tbaa !182
  %98 = load i32, ptr %7, align 4, !tbaa !13
  %99 = icmp eq i32 %98, 0
  br i1 %99, label %100, label %262

100:                                              ; preds = %67
  call void @llvm.lifetime.start.p0(i64 8, ptr %13) #13
  %101 = load ptr, ptr %10, align 8, !tbaa !61
  %102 = getelementptr inbounds nuw %struct.config_source, ptr %101, i32 0, i32 10
  %103 = getelementptr inbounds nuw %struct.strbuf, ptr %102, i32 0, i32 1
  %104 = load i64, ptr %103, align 8, !tbaa !183
  %105 = icmp ult i64 %104, 2
  br i1 %105, label %120, label %106

106:                                              ; preds = %100
  %107 = load ptr, ptr %10, align 8, !tbaa !61
  %108 = getelementptr inbounds nuw %struct.config_source, ptr %107, i32 0, i32 10
  %109 = getelementptr inbounds nuw %struct.strbuf, ptr %108, i32 0, i32 2
  %110 = load ptr, ptr %109, align 8, !tbaa !184
  %111 = load ptr, ptr %10, align 8, !tbaa !61
  %112 = getelementptr inbounds nuw %struct.config_source, ptr %111, i32 0, i32 10
  %113 = getelementptr inbounds nuw %struct.strbuf, ptr %112, i32 0, i32 1
  %114 = load i64, ptr %113, align 8, !tbaa !183
  %115 = sub i64 %114, 1
  %116 = getelementptr inbounds nuw i8, ptr %110, i64 %115
  %117 = load i8, ptr %116, align 1, !tbaa !9
  %118 = sext i8 %117 to i32
  %119 = icmp ne i32 %118, 46
  br i1 %119, label %120, label %128

120:                                              ; preds = %106, %100
  %121 = call ptr @_(ptr noundef @.str.243)
  %122 = load ptr, ptr %10, align 8, !tbaa !61
  %123 = getelementptr inbounds nuw %struct.config_source, ptr %122, i32 0, i32 10
  %124 = getelementptr inbounds nuw %struct.strbuf, ptr %123, i32 0, i32 2
  %125 = load ptr, ptr %124, align 8, !tbaa !184
  %126 = call i32 (ptr, ...) @error(ptr noundef %121, ptr noundef %125)
  %127 = call i32 @const_error()
  store i32 %127, ptr %6, align 4
  store i32 1, ptr %14, align 4
  br label %259

128:                                              ; preds = %106
  %129 = load ptr, ptr %10, align 8, !tbaa !61
  %130 = getelementptr inbounds nuw %struct.config_source, ptr %129, i32 0, i32 11
  %131 = load i8, ptr %130, align 8
  %132 = and i8 %131, 1
  %133 = zext i8 %132 to i32
  %134 = icmp ne i32 %133, 0
  br i1 %134, label %135, label %136

135:                                              ; preds = %128
  store ptr @strncasecmp, ptr %13, align 8, !tbaa !30
  br label %137

136:                                              ; preds = %128
  store ptr @strncmp, ptr %13, align 8, !tbaa !30
  br label %137

137:                                              ; preds = %136, %135
  %138 = load ptr, ptr %10, align 8, !tbaa !61
  %139 = getelementptr inbounds nuw %struct.config_source, ptr %138, i32 0, i32 10
  %140 = getelementptr inbounds nuw %struct.strbuf, ptr %139, i32 0, i32 1
  %141 = load i64, ptr %140, align 8, !tbaa !183
  %142 = sub i64 %141, 1
  %143 = load ptr, ptr %12, align 8, !tbaa !177
  %144 = getelementptr inbounds nuw %struct.config_store_data, ptr %143, i32 0, i32 0
  %145 = load i64, ptr %144, align 8, !tbaa !180
  %146 = icmp eq i64 %142, %145
  br i1 %146, label %147, label %162

147:                                              ; preds = %137
  %148 = load ptr, ptr %13, align 8, !tbaa !30
  %149 = load ptr, ptr %10, align 8, !tbaa !61
  %150 = getelementptr inbounds nuw %struct.config_source, ptr %149, i32 0, i32 10
  %151 = getelementptr inbounds nuw %struct.strbuf, ptr %150, i32 0, i32 2
  %152 = load ptr, ptr %151, align 8, !tbaa !184
  %153 = load ptr, ptr %12, align 8, !tbaa !177
  %154 = getelementptr inbounds nuw %struct.config_store_data, ptr %153, i32 0, i32 1
  %155 = load ptr, ptr %154, align 8, !tbaa !154
  %156 = load ptr, ptr %12, align 8, !tbaa !177
  %157 = getelementptr inbounds nuw %struct.config_store_data, ptr %156, i32 0, i32 0
  %158 = load i64, ptr %157, align 8, !tbaa !180
  %159 = call i32 %148(ptr noundef %152, ptr noundef %155, i64 noundef %158)
  %160 = icmp ne i32 %159, 0
  %161 = xor i1 %160, true
  br label %162

162:                                              ; preds = %147, %137
  %163 = phi i1 [ false, %137 ], [ %161, %147 ]
  %164 = zext i1 %163 to i32
  %165 = load ptr, ptr %12, align 8, !tbaa !177
  %166 = getelementptr inbounds nuw %struct.config_store_data, ptr %165, i32 0, i32 6
  %167 = load ptr, ptr %166, align 8, !tbaa !159
  %168 = load ptr, ptr %12, align 8, !tbaa !177
  %169 = getelementptr inbounds nuw %struct.config_store_data, ptr %168, i32 0, i32 7
  %170 = load i32, ptr %169, align 8, !tbaa !171
  %171 = zext i32 %170 to i64
  %172 = getelementptr inbounds nuw %struct.anon, ptr %167, i64 %171
  %173 = getelementptr inbounds nuw %struct.anon, ptr %172, i32 0, i32 3
  store i32 %164, ptr %173, align 4, !tbaa !185
  %174 = load ptr, ptr %12, align 8, !tbaa !177
  %175 = getelementptr inbounds nuw %struct.config_store_data, ptr %174, i32 0, i32 12
  %176 = trunc i32 %164 to i8
  %177 = load i8, ptr %175, align 8
  %178 = and i8 %176, 1
  %179 = shl i8 %178, 2
  %180 = and i8 %177, -5
  %181 = or i8 %180, %179
  store i8 %181, ptr %175, align 8
  %182 = load ptr, ptr %12, align 8, !tbaa !177
  %183 = getelementptr inbounds nuw %struct.config_store_data, ptr %182, i32 0, i32 12
  %184 = load i8, ptr %183, align 8
  %185 = lshr i8 %184, 2
  %186 = and i8 %185, 1
  %187 = zext i8 %186 to i32
  %188 = icmp ne i32 %187, 0
  br i1 %188, label %189, label %258

189:                                              ; preds = %162
  %190 = load ptr, ptr %12, align 8, !tbaa !177
  %191 = getelementptr inbounds nuw %struct.config_store_data, ptr %190, i32 0, i32 12
  %192 = load i8, ptr %191, align 8
  %193 = and i8 %192, -3
  %194 = or i8 %193, 2
  store i8 %194, ptr %191, align 8
  br label %195

195:                                              ; preds = %189
  %196 = load ptr, ptr %12, align 8, !tbaa !177
  %197 = getelementptr inbounds nuw %struct.config_store_data, ptr %196, i32 0, i32 10
  %198 = load i32, ptr %197, align 8, !tbaa !164
  %199 = add i32 %198, 1
  %200 = load ptr, ptr %12, align 8, !tbaa !177
  %201 = getelementptr inbounds nuw %struct.config_store_data, ptr %200, i32 0, i32 11
  %202 = load i32, ptr %201, align 4, !tbaa !169
  %203 = icmp ugt i32 %199, %202
  br i1 %203, label %204, label %244

204:                                              ; preds = %195
  %205 = load ptr, ptr %12, align 8, !tbaa !177
  %206 = getelementptr inbounds nuw %struct.config_store_data, ptr %205, i32 0, i32 11
  %207 = load i32, ptr %206, align 4, !tbaa !169
  %208 = add i32 %207, 16
  %209 = mul i32 %208, 3
  %210 = udiv i32 %209, 2
  %211 = load ptr, ptr %12, align 8, !tbaa !177
  %212 = getelementptr inbounds nuw %struct.config_store_data, ptr %211, i32 0, i32 10
  %213 = load i32, ptr %212, align 8, !tbaa !164
  %214 = add i32 %213, 1
  %215 = icmp ult i32 %210, %214
  br i1 %215, label %216, label %223

216:                                              ; preds = %204
  %217 = load ptr, ptr %12, align 8, !tbaa !177
  %218 = getelementptr inbounds nuw %struct.config_store_data, ptr %217, i32 0, i32 10
  %219 = load i32, ptr %218, align 8, !tbaa !164
  %220 = add i32 %219, 1
  %221 = load ptr, ptr %12, align 8, !tbaa !177
  %222 = getelementptr inbounds nuw %struct.config_store_data, ptr %221, i32 0, i32 11
  store i32 %220, ptr %222, align 4, !tbaa !169
  br label %232

223:                                              ; preds = %204
  %224 = load ptr, ptr %12, align 8, !tbaa !177
  %225 = getelementptr inbounds nuw %struct.config_store_data, ptr %224, i32 0, i32 11
  %226 = load i32, ptr %225, align 4, !tbaa !169
  %227 = add i32 %226, 16
  %228 = mul i32 %227, 3
  %229 = udiv i32 %228, 2
  %230 = load ptr, ptr %12, align 8, !tbaa !177
  %231 = getelementptr inbounds nuw %struct.config_store_data, ptr %230, i32 0, i32 11
  store i32 %229, ptr %231, align 4, !tbaa !169
  br label %232

232:                                              ; preds = %223, %216
  %233 = load ptr, ptr %12, align 8, !tbaa !177
  %234 = getelementptr inbounds nuw %struct.config_store_data, ptr %233, i32 0, i32 9
  %235 = load ptr, ptr %234, align 8, !tbaa !170
  %236 = load ptr, ptr %12, align 8, !tbaa !177
  %237 = getelementptr inbounds nuw %struct.config_store_data, ptr %236, i32 0, i32 11
  %238 = load i32, ptr %237, align 4, !tbaa !169
  %239 = zext i32 %238 to i64
  %240 = call i64 @st_mult(i64 noundef 4, i64 noundef %239)
  %241 = call ptr @xrealloc(ptr noundef %235, i64 noundef %240)
  %242 = load ptr, ptr %12, align 8, !tbaa !177
  %243 = getelementptr inbounds nuw %struct.config_store_data, ptr %242, i32 0, i32 9
  store ptr %241, ptr %243, align 8, !tbaa !170
  br label %244

244:                                              ; preds = %232, %195
  br label %245

245:                                              ; preds = %244
  br label %246

246:                                              ; preds = %245
  %247 = load ptr, ptr %12, align 8, !tbaa !177
  %248 = getelementptr inbounds nuw %struct.config_store_data, ptr %247, i32 0, i32 7
  %249 = load i32, ptr %248, align 8, !tbaa !171
  %250 = load ptr, ptr %12, align 8, !tbaa !177
  %251 = getelementptr inbounds nuw %struct.config_store_data, ptr %250, i32 0, i32 9
  %252 = load ptr, ptr %251, align 8, !tbaa !170
  %253 = load ptr, ptr %12, align 8, !tbaa !177
  %254 = getelementptr inbounds nuw %struct.config_store_data, ptr %253, i32 0, i32 10
  %255 = load i32, ptr %254, align 8, !tbaa !164
  %256 = zext i32 %255 to i64
  %257 = getelementptr inbounds nuw i32, ptr %252, i64 %256
  store i32 %249, ptr %257, align 4, !tbaa !13
  br label %258

258:                                              ; preds = %246, %162
  store i32 0, ptr %14, align 4
  br label %259

259:                                              ; preds = %258, %120
  call void @llvm.lifetime.end.p0(i64 8, ptr %13) #13
  %260 = load i32, ptr %14, align 4
  switch i32 %260, label %267 [
    i32 0, label %261
  ]

261:                                              ; preds = %259
  br label %262

262:                                              ; preds = %261, %67
  %263 = load ptr, ptr %12, align 8, !tbaa !177
  %264 = getelementptr inbounds nuw %struct.config_store_data, ptr %263, i32 0, i32 7
  %265 = load i32, ptr %264, align 8, !tbaa !171
  %266 = add i32 %265, 1
  store i32 %266, ptr %264, align 8, !tbaa !171
  store i32 0, ptr %6, align 4
  store i32 1, ptr %14, align 4
  br label %267

267:                                              ; preds = %262, %259
  call void @llvm.lifetime.end.p0(i64 8, ptr %12) #13
  %268 = load i32, ptr %6, align 4
  ret i32 %268
}