; Function Attrs: nounwind uwtable
define internal range(i32 -1, 1) i32 @store_aux_event(i32 noundef %0, i64 noundef %1, i64 noundef %2, ptr noundef readonly captures(none) %3, ptr noundef captures(none) %4) #0 {
  %6 = getelementptr inbounds nuw i8, ptr %4, i64 56
  %7 = load i32, ptr %6, align 8, !tbaa !152
  %8 = add i32 %7, 1
  %9 = getelementptr inbounds nuw i8, ptr %4, i64 60
  %10 = load i32, ptr %9, align 4, !tbaa !138
  %11 = icmp ugt i32 %8, %10
  br i1 %11, label %12, label %._crit_edge

._crit_edge:                                      ; preds = %5
  %.phi.trans.insert = getelementptr inbounds nuw i8, ptr %4, i64 48
  %.pre = load ptr, ptr %.phi.trans.insert, align 8, !tbaa !139
  br label %21

12:                                               ; preds = %5
  %13 = mul i32 %10, 3
  %14 = add i32 %13, 48
  %15 = lshr i32 %14, 1
  %. = tail call i32 @llvm.umax.i32(i32 %15, i32 %8)
  store i32 %., ptr %9, align 4, !tbaa !138
  %16 = getelementptr inbounds nuw i8, ptr %4, i64 48
  %17 = load ptr, ptr %16, align 8, !tbaa !139
  %18 = zext i32 %. to i64
  %19 = mul nuw nsw i64 %18, 24
  %20 = tail call ptr @xrealloc(ptr noundef %17, i64 noundef %19) #30
  store ptr %20, ptr %16, align 8, !tbaa !139
  %.pre69 = load i32, ptr %6, align 8, !tbaa !152
  br label %21

21:                                               ; preds = %._crit_edge, %12
  %22 = phi i32 [ %7, %._crit_edge ], [ %.pre69, %12 ]
  %23 = phi ptr [ %.pre, %._crit_edge ], [ %20, %12 ]
  %24 = getelementptr inbounds nuw i8, ptr %4, i64 48
  %25 = zext i32 %22 to i64
  %26 = getelementptr inbounds nuw %struct.anon, ptr %23, i64 %25
  store i64 %1, ptr %26, align 8, !tbaa !153
  %27 = getelementptr inbounds nuw %struct.anon, ptr %23, i64 %25, i32 1
  store i64 %2, ptr %27, align 8, !tbaa !140
  %28 = getelementptr inbounds nuw %struct.anon, ptr %23, i64 %25, i32 2
  store i32 %0, ptr %28, align 8, !tbaa !157
  %29 = icmp eq i32 %0, 0
  br i1 %29, label %30, label %92

30:                                               ; preds = %21
  %31 = getelementptr inbounds nuw i8, ptr %3, i64 112
  %32 = load i64, ptr %31, align 8, !tbaa !158
  %33 = icmp ult i64 %32, 2
  br i1 %33, label %.critedge, label %34

34:                                               ; preds = %30
  %35 = getelementptr inbounds nuw i8, ptr %3, i64 120
  %36 = load ptr, ptr %35, align 8, !tbaa !159
  %37 = getelementptr i8, ptr %36, i64 %32
  %38 = getelementptr i8, ptr %37, i64 -1
  %39 = load i8, ptr %38, align 1, !tbaa !4
  %.not = icmp eq i8 %39, 46
  br i1 %.not, label %46, label %.critedge

.critedge:                                        ; preds = %34, %30
  %40 = load i32, ptr @git_gettext_enabled, align 4, !tbaa !14
  %.not4.i = icmp eq i32 %40, 0
  br i1 %.not4.i, label %_.exit, label %41

41:                                               ; preds = %.critedge
  %42 = tail call ptr @dcgettext(ptr noundef null, ptr noundef nonnull @.str.243, i32 noundef 5) #30
  br label %_.exit

_.exit:                                           ; preds = %.critedge, %41
  %.0.i = phi ptr [ %42, %41 ], [ @.str.243, %.critedge ]
  %43 = getelementptr inbounds nuw i8, ptr %3, i64 120
  %44 = load ptr, ptr %43, align 8, !tbaa !159
  %45 = tail call i32 (ptr, ...) @error(ptr noundef %.0.i, ptr noundef %44) #30
  br label %95

46:                                               ; preds = %34
  %47 = add i64 %32, -1
  %48 = load i64, ptr %4, align 8, !tbaa !160
  %49 = icmp eq i64 %47, %48
  br i1 %49, label %50, label %58

50:                                               ; preds = %46
  %51 = getelementptr inbounds nuw i8, ptr %3, i64 128
  %52 = load i8, ptr %51, align 8
  %53 = and i8 %52, 1
  %.not64 = icmp eq i8 %53, 0
  %strncmp.strncasecmp = select i1 %.not64, ptr @strncmp, ptr @strncasecmp
  %54 = getelementptr inbounds nuw i8, ptr %4, i64 8
  %55 = load ptr, ptr %54, align 8, !tbaa !135
  %56 = tail call i32 %strncmp.strncasecmp(ptr noundef nonnull %36, ptr noundef %55, i64 noundef %47) #30, !callees !161
  %.not65 = icmp eq i32 %56, 0
  %57 = zext i1 %.not65 to i32
  %.pre70 = load ptr, ptr %24, align 8, !tbaa !139
  %.pre71 = load i32, ptr %6, align 8, !tbaa !152
  %.pre78 = zext i32 %.pre71 to i64
  br label %58

58:                                               ; preds = %50, %46
  %.pre-phi = phi i64 [ %.pre78, %50 ], [ %25, %46 ]
  %59 = phi i32 [ %.pre71, %50 ], [ %22, %46 ]
  %60 = phi ptr [ %.pre70, %50 ], [ %23, %46 ]
  %61 = phi i32 [ %57, %50 ], [ 0, %46 ]
  %62 = getelementptr inbounds nuw %struct.anon, ptr %60, i64 %.pre-phi, i32 3
  store i32 %61, ptr %62, align 4, !tbaa !162
  %63 = getelementptr inbounds nuw i8, ptr %4, i64 80
  %64 = trunc nuw nsw i32 %61 to i8
  %65 = load i8, ptr %63, align 8
  %66 = shl nuw nsw i8 %64, 2
  %67 = and i8 %65, -5
  %68 = or disjoint i8 %67, %66
  store i8 %68, ptr %63, align 8
  %.not66 = icmp eq i32 %61, 0
  br i1 %.not66, label %92, label %69

69:                                               ; preds = %58
  %70 = or i8 %68, 2
  store i8 %70, ptr %63, align 8
  %71 = getelementptr inbounds nuw i8, ptr %4, i64 72
  %72 = load i32, ptr %71, align 8, !tbaa !142
  %73 = add i32 %72, 1
  %74 = getelementptr inbounds nuw i8, ptr %4, i64 76
  %75 = load i32, ptr %74, align 4, !tbaa !150
  %76 = icmp ugt i32 %73, %75
  br i1 %76, label %77, label %._crit_edge73

._crit_edge73:                                    ; preds = %69
  %.phi.trans.insert74 = getelementptr inbounds nuw i8, ptr %4, i64 64
  %.pre75 = load ptr, ptr %.phi.trans.insert74, align 8, !tbaa !151
  br label %86

77:                                               ; preds = %69
  %78 = mul i32 %75, 3
  %79 = add i32 %78, 48
  %80 = lshr i32 %79, 1
  %.68 = tail call i32 @llvm.umax.i32(i32 %80, i32 %73)
  store i32 %.68, ptr %74, align 4, !tbaa !150
  %81 = getelementptr inbounds nuw i8, ptr %4, i64 64
  %82 = load ptr, ptr %81, align 8, !tbaa !151
  %83 = zext i32 %.68 to i64
  %84 = shl nuw nsw i64 %83, 2
  %85 = tail call ptr @xrealloc(ptr noundef %82, i64 noundef %84) #30
  store ptr %85, ptr %81, align 8, !tbaa !151
  %.pre72 = load i32, ptr %6, align 8, !tbaa !152
  %.pre76 = load i32, ptr %71, align 8, !tbaa !142
  br label %86

86:                                               ; preds = %._crit_edge73, %77
  %87 = phi i32 [ %.pre76, %77 ], [ %72, %._crit_edge73 ]
  %88 = phi ptr [ %85, %77 ], [ %.pre75, %._crit_edge73 ]
  %89 = phi i32 [ %.pre72, %77 ], [ %59, %._crit_edge73 ]
  %90 = zext i32 %87 to i64
  %91 = getelementptr inbounds nuw i32, ptr %88, i64 %90
  store i32 %89, ptr %91, align 4, !tbaa !14
  %.pre77 = load i32, ptr %6, align 8, !tbaa !152
  br label %92

92:                                               ; preds = %86, %58, %21
  %93 = phi i32 [ %.pre77, %86 ], [ %59, %58 ], [ %22, %21 ]
  %94 = add i32 %93, 1
  store i32 %94, ptr %6, align 8, !tbaa !152
  br label %95

95:                                               ; preds = %_.exit, %92
  %.1 = phi i32 [ 0, %92 ], [ -1, %_.exit ]
  ret i32 %.1
}